target datalayout = "e-m:e-p270:32:32-p271:32:32-p272:64:64-i64:64-i128:128-f80:128-n8:16:32:64-S128"
target triple = "x86_64-pc-linux-gnu"

%"class.cv::Mat" = type { i32, i32, i32, i32, ptr, ptr, ptr, ptr, ptr, ptr, %"struct.cv::MatSize", %"struct.cv::MatStep" }
%"struct.cv::MatSize" = type { ptr }
%"struct.cv::MatStep" = type { ptr, [2 x i64] }
%"class.cv::ccm::Operations" = type { ptr, %"class.std::vector" }
%"class.std::vector" = type { %"struct.std::_Vector_base" }
%"struct.std::_Vector_base" = type { %"struct.std::_Vector_base<cv::ccm::Operation, std::allocator<cv::ccm::Operation>>::_Vector_impl" }
%"struct.std::_Vector_base<cv::ccm::Operation, std::allocator<cv::ccm::Operation>>::_Vector_impl" = type { %"struct.std::_Vector_base<cv::ccm::Operation, std::allocator<cv::ccm::Operation>>::_Vector_impl_data" }
%"struct.std::_Vector_base<cv::ccm::Operation, std::allocator<cv::ccm::Operation>>::_Vector_impl_data" = type { ptr, ptr, ptr }
%"class.cv::ccm::ColorSpace" = type { ptr, %"class.cv::ccm::IO", %"class.std::__cxx11::basic_string", i8, %"class.cv::ccm::Operations", %"class.cv::ccm::Operations", ptr, ptr }
%"class.cv::ccm::IO" = type { ptr, %"class.std::__cxx11::basic_string", %"class.std::__cxx11::basic_string" }
%"class.std::__cxx11::basic_string" = type { %"struct.std::__cxx11::basic_string<char>::_Alloc_hider", i64, %union.anon }
%"struct.std::__cxx11::basic_string<char>::_Alloc_hider" = type { ptr }
%union.anon = type { i64, [8 x i8] }
%"class.cv::ccm::RGBBase_" = type { %"class.cv::ccm::ColorSpace", double, double, double, double, double, double, %"class.cv::Mat", %"class.cv::Mat" }
%"class.cv::ccm::sRGBBase_" = type { %"class.cv::ccm::RGBBase_", double, double, double, double, double, double }
%class.anon.18 = type { ptr }
%"class.cv::Range" = type { i32, i32 }
%class.anon.143 = type { ptr, ptr, ptr, ptr, ptr }

; Function Attrs: mustprogress nounwind uwtable
define hidden noundef double @_ZNK2cv3ccm9sRGBBase_9toLFuncEWERd(ptr noundef nonnull align 8 dereferenceable(488) %0, ptr noundef nonnull align 8 dereferenceable(8) %1) #8 align 2 {
  %3 = alloca double, align 8
  %4 = alloca ptr, align 8
  %5 = alloca ptr, align 8
  store ptr %0, ptr %4, align 8, !tbaa !141
  store ptr %1, ptr %5, align 8, !tbaa !150
  %6 = load ptr, ptr %4, align 8
  %7 = load ptr, ptr %5, align 8, !tbaa !150
  %8 = load double, ptr %7, align 8, !tbaa !65
  %9 = getelementptr inbounds nuw %"class.cv::ccm::sRGBBase_", ptr %6, i32 0, i32 6
  %10 = load double, ptr %9, align 8, !tbaa !147
  %11 = fcmp ogt double %8, %10
  br i1 %11, label %12, label %25

12:                                               ; preds = %2
  %13 = load ptr, ptr %5, align 8, !tbaa !150
  %14 = load double, ptr %13, align 8, !tbaa !65
  %15 = getelementptr inbounds nuw %"class.cv::ccm::sRGBBase_", ptr %6, i32 0, i32 3
  %16 = load double, ptr %15, align 8, !tbaa !145
  %17 = fadd double %14, %16
  %18 = fsub double %17, 1.000000e+00
  %19 = getelementptr inbounds nuw %"class.cv::ccm::sRGBBase_", ptr %6, i32 0, i32 3
  %20 = load double, ptr %19, align 8, !tbaa !145
  %21 = fdiv double %18, %20
  %22 = getelementptr inbounds nuw %"class.cv::ccm::sRGBBase_", ptr %6, i32 0, i32 2
  %23 = load double, ptr %22, align 8, !tbaa !146
  %24 = call double @pow(double noundef %21, double noundef %23) #3, !tbaa !122
  store double %24, ptr %3, align 8
  br label %53

25:                                               ; preds = %2
  %26 = load ptr, ptr %5, align 8, !tbaa !150
  %27 = load double, ptr %26, align 8, !tbaa !65
  %28 = getelementptr inbounds nuw %"class.cv::ccm::sRGBBase_", ptr %6, i32 0, i32 6
  %29 = load double, ptr %28, align 8, !tbaa !147
  %30 = fneg double %29
  %31 = fcmp oge double %27, %30
  br i1 %31, label %32, label %38

32:                                               ; preds = %25
  %33 = load ptr, ptr %5, align 8, !tbaa !150
  %34 = load double, ptr %33, align 8, !tbaa !65
  %35 = getelementptr inbounds nuw %"class.cv::ccm::sRGBBase_", ptr %6, i32 0, i32 5
  %36 = load double, ptr %35, align 8, !tbaa !148
  %37 = fdiv double %34, %36
  store double %37, ptr %3, align 8
  br label %53

38:                                               ; preds = %25
  %39 = load ptr, ptr %5, align 8, !tbaa !150
  %40 = load double, ptr %39, align 8, !tbaa !65
  %41 = fneg double %40
  %42 = getelementptr inbounds nuw %"class.cv::ccm::sRGBBase_", ptr %6, i32 0, i32 3
  %43 = load double, ptr %42, align 8, !tbaa !145
  %44 = fadd double %41, %43
  %45 = fsub double %44, 1.000000e+00
  %46 = getelementptr inbounds nuw %"class.cv::ccm::sRGBBase_", ptr %6, i32 0, i32 3
  %47 = load double, ptr %46, align 8, !tbaa !145
  %48 = fdiv double %45, %47
  %49 = getelementptr inbounds nuw %"class.cv::ccm::sRGBBase_", ptr %6, i32 0, i32 2
  %50 = load double, ptr %49, align 8, !tbaa !146
  %51 = call double @pow(double noundef %48, double noundef %50) #3, !tbaa !122
  %52 = fneg double %51
  store double %52, ptr %3, align 8
  br label %53

53:                                               ; preds = %38, %32, %12
  %54 = load double, ptr %3, align 8
  ret double %54
}

; Function Attrs: inlinehint mustprogress nounwind uwtable
define internal noundef double @"_ZZNK2cv3ccm9sRGBBase_7toLFuncERNS_3MatEENK3$_0clEd"(ptr noundef nonnull align 8 dereferenceable(8) %0, double noundef %1) #5 align 2 {
  %3 = alloca ptr, align 8
  %4 = alloca double, align 8
  store ptr %0, ptr %3, align 8, !tbaa !42
  store double %1, ptr %4, align 8, !tbaa !65
  %5 = load ptr, ptr %3, align 8
  %6 = getelementptr inbounds nuw %class.anon.18, ptr %5, i32 0, i32 0
  %7 = load ptr, ptr %6, align 8, !tbaa !151
  %8 = call noundef double @_ZNK2cv3ccm9sRGBBase_9toLFuncEWERd(ptr noundef nonnull align 8 dereferenceable(488) %7, ptr noundef nonnull align 8 dereferenceable(8) %4)
  ret double %8
}

; Function Attrs: inlinehint mustprogress nounwind uwtable
define linkonce_odr noundef nonnull align 4 dereferenceable(4) ptr @_ZSt3minIiERKT_S2_S2_(ptr noundef nonnull align 4 dereferenceable(4) %0, ptr noundef nonnull align 4 dereferenceable(4) %1) #5 comdat {
  %3 = alloca ptr, align 8
  %4 = alloca ptr, align 8
  %5 = alloca ptr, align 8
  store ptr %0, ptr %4, align 8, !tbaa !153
  store ptr %1, ptr %5, align 8, !tbaa !153
  %6 = load ptr, ptr %5, align 8, !tbaa !153
  %7 = load i32, ptr %6, align 4, !tbaa !122
  %8 = load ptr, ptr %4, align 8, !tbaa !153
  %9 = load i32, ptr %8, align 4, !tbaa !122
  %10 = icmp slt i32 %7, %9
  br i1 %10, label %11, label %13

11:                                               ; preds = %2
  %12 = load ptr, ptr %5, align 8, !tbaa !153
  store ptr %12, ptr %3, align 8
  br label %15

13:                                               ; preds = %2
  %14 = load ptr, ptr %4, align 8, !tbaa !153
  store ptr %14, ptr %3, align 8
  br label %15

15:                                               ; preds = %13, %11
  %16 = load ptr, ptr %3, align 8
  ret ptr %16
}

; Function Attrs: inlinehint mustprogress uwtable
define internal void @"_ZZN2cv3ccm11elementWiseIZNKS0_9sRGBBase_7toLFuncERNS_3MatEE3$_0EES3_RKS3_OT_S3_ENKUlRKNS_5RangeEE_clESC_"(ptr noundef nonnull align 8 dereferenceable(40) %0, ptr noundef nonnull align 4 dereferenceable(8) %1) #6 align 2 {
  %3 = alloca ptr, align 8
  %4 = alloca ptr, align 8
  %5 = alloca i32, align 4
  %6 = alloca i32, align 4
  %7 = alloca i32, align 4
  %8 = alloca i32, align 4
  store ptr %0, ptr %3, align 8, !tbaa !42
  store ptr %1, ptr %4, align 8, !tbaa !590
  %9 = load ptr, ptr %3, align 8
  call void @llvm.lifetime.start.p0(i64 4, ptr %5) #3
  %10 = load ptr, ptr %4, align 8, !tbaa !590
  %11 = getelementptr inbounds nuw %"class.cv::Range", ptr %10, i32 0, i32 0
  %12 = load i32, ptr %11, align 4, !tbaa !594
  %13 = getelementptr inbounds nuw %class.anon.143, ptr %9, i32 0, i32 0
  %14 = load ptr, ptr %13, align 8, !tbaa !609
  %15 = load i32, ptr %14, align 4, !tbaa !122
  %16 = mul nsw i32 %12, %15
  store i32 %16, ptr %5, align 4, !tbaa !122
  call void @llvm.lifetime.start.p0(i64 4, ptr %6) #3
  call void @llvm.lifetime.start.p0(i64 4, ptr %7) #3
  %17 = load ptr, ptr %4, align 8, !tbaa !590
  %18 = getelementptr inbounds nuw %"class.cv::Range", ptr %17, i32 0, i32 1
  %19 = load i32, ptr %18, align 4, !tbaa !596
  %20 = getelementptr inbounds nuw %class.anon.143, ptr %9, i32 0, i32 0
  %21 = load ptr, ptr %20, align 8, !tbaa !609
  %22 = load i32, ptr %21, align 4, !tbaa !122
  %23 = mul nsw i32 %19, %22
  store i32 %23, ptr %7, align 4, !tbaa !122
  %24 = getelementptr inbounds nuw %class.anon.143, ptr %9, i32 0, i32 1
  %25 = load ptr, ptr %24, align 8, !tbaa !611
  %26 = call noundef nonnull align 4 dereferenceable(4) ptr @_ZSt3minIiERKT_S2_S2_(ptr noundef nonnull align 4 dereferenceable(4) %7, ptr noundef nonnull align 4 dereferenceable(4) %25)
  %27 = load i32, ptr %26, align 4, !tbaa !122
  call void @llvm.lifetime.end.p0(i64 4, ptr %7) #3
  store i32 %27, ptr %6, align 4, !tbaa !122
  call void @llvm.lifetime.start.p0(i64 4, ptr %8) #3
  %28 = load i32, ptr %5, align 4, !tbaa !122
  store i32 %28, ptr %8, align 4, !tbaa !122
  br label %29

29:                                               ; preds = %51, %2
  %30 = load i32, ptr %8, align 4, !tbaa !122
  %31 = load i32, ptr %6, align 4, !tbaa !122
  %32 = icmp slt i32 %30, %31
  br i1 %32, label %34, label %33

33:                                               ; preds = %29
  call void @llvm.lifetime.end.p0(i64 4, ptr %8) #3
  br label %54

34:                                               ; preds = %29
  %35 = getelementptr inbounds nuw %class.anon.143, ptr %9, i32 0, i32 3
  %36 = load ptr, ptr %35, align 8, !tbaa !612
  %37 = getelementptr inbounds nuw %class.anon.143, ptr %9, i32 0, i32 4
  %38 = load ptr, ptr %37, align 8, !tbaa !613
  %39 = load ptr, ptr %38, align 8, !tbaa !150
  %40 = load i32, ptr %8, align 4, !tbaa !122
  %41 = sext i32 %40 to i64
  %42 = getelementptr inbounds double, ptr %39, i64 %41
  %43 = load double, ptr %42, align 8, !tbaa !65
  %44 = call noundef double @"_ZZNK2cv3ccm9sRGBBase_7toLFuncERNS_3MatEENK3$_0clEd"(ptr noundef nonnull align 8 dereferenceable(8) %36, double noundef %43)
  %45 = getelementptr inbounds nuw %class.anon.143, ptr %9, i32 0, i32 2
  %46 = load ptr, ptr %45, align 8, !tbaa !614
  %47 = load ptr, ptr %46, align 8, !tbaa !150
  %48 = load i32, ptr %8, align 4, !tbaa !122
  %49 = sext i32 %48 to i64
  %50 = getelementptr inbounds double, ptr %47, i64 %49
  store double %44, ptr %50, align 8, !tbaa !65
  br label %51

51:                                               ; preds = %34
  %52 = load i32, ptr %8, align 4, !tbaa !122
  %53 = add nsw i32 %52, 1
  store i32 %53, ptr %8, align 4, !tbaa !122
  br label %29, !llvm.loop !615

54:                                               ; preds = %33
  call void @llvm.lifetime.end.p0(i64 4, ptr %6) #3
  call void @llvm.lifetime.end.p0(i64 4, ptr %5) #3
  ret void
}

; Function Attrs: mustprogress nounwind uwtable
define linkonce_odr hidden noundef ptr @_ZNKSt9_Any_data9_M_accessEv(ptr noundef nonnull align 8 dereferenceable(16) %0) #8 comdat align 2 {
  %2 = alloca ptr, align 8
  store ptr %0, ptr %2, align 8, !tbaa !316
  %3 = load ptr, ptr %2, align 8
  %4 = getelementptr inbounds [16 x i8], ptr %3, i64 0, i64 0
  ret ptr %4
}

; Function Attrs: mustprogress uwtable
define internal void @"_ZSt13__invoke_implIvRZN2cv3ccm11elementWiseIZNKS1_9sRGBBase_7toLFuncERNS0_3MatEE3$_0EES4_RKS4_OT_S4_EUlRKNS0_5RangeEE_JSD_EES9_St14__invoke_otherOT0_DpOT1_"(ptr noundef nonnull align 8 dereferenceable(40) %0, ptr noundef nonnull align 4 dereferenceable(8) %1) #4 {
  %3 = alloca ptr, align 8
  %4 = alloca ptr, align 8
  store ptr %0, ptr %3, align 8, !tbaa !42
  store ptr %1, ptr %4, align 8, !tbaa !590
  %5 = load ptr, ptr %3, align 8, !tbaa !42
  %6 = load ptr, ptr %4, align 8, !tbaa !590
  call void @"_ZZN2cv3ccm11elementWiseIZNKS0_9sRGBBase_7toLFuncERNS_3MatEE3$_0EES3_RKS3_OT_S3_ENKUlRKNS_5RangeEE_clESC_"(ptr noundef nonnull align 8 dereferenceable(40) %5, ptr noundef nonnull align 4 dereferenceable(8) %6)
  ret void
}

; Function Attrs: mustprogress nounwind uwtable
define internal noundef nonnull align 8 dereferenceable(8) ptr @"_ZNKSt9_Any_data9_M_accessIPZN2cv3ccm11elementWiseIZNKS2_9sRGBBase_7toLFuncERNS1_3MatEE3$_0EES5_RKS5_OT_S5_EUlRKNS1_5RangeEE_EERKSA_v"(ptr noundef nonnull align 8 dereferenceable(16) %0) #8 align 2 {
  %2 = alloca ptr, align 8
  store ptr %0, ptr %2, align 8, !tbaa !316
  %3 = load ptr, ptr %2, align 8
  %4 = call noundef ptr @_ZNKSt9_Any_data9_M_accessEv(ptr noundef nonnull align 8 dereferenceable(16) %3) #3
  ret ptr %4
}

; Function Attrs: mustprogress uwtable
define internal void @"_ZSt10__invoke_rIvRZN2cv3ccm11elementWiseIZNKS1_9sRGBBase_7toLFuncERNS0_3MatEE3$_0EES4_RKS4_OT_S4_EUlRKNS0_5RangeEE_JSD_EENSt9enable_ifIXsr6__and_ISt7is_voidIS9_ESt14__is_invocableIT0_JDpT1_EEEE5valueES9_E4typeEOSK_DpOSL_"(ptr noundef nonnull align 8 dereferenceable(40) %0, ptr noundef nonnull align 4 dereferenceable(8) %1) #4 {
  %3 = alloca ptr, align 8
  %4 = alloca ptr, align 8
  store ptr %0, ptr %3, align 8, !tbaa !42
  store ptr %1, ptr %4, align 8, !tbaa !590
  %5 = load ptr, ptr %3, align 8, !tbaa !42
  %6 = load ptr, ptr %4, align 8, !tbaa !590
  call void @"_ZSt13__invoke_implIvRZN2cv3ccm11elementWiseIZNKS1_9sRGBBase_7toLFuncERNS0_3MatEE3$_0EES4_RKS4_OT_S4_EUlRKNS0_5RangeEE_JSD_EES9_St14__invoke_otherOT0_DpOT1_"(ptr noundef nonnull align 8 dereferenceable(40) %5, ptr noundef nonnull align 4 dereferenceable(8) %6)
  ret void
}

; Function Attrs: mustprogress nounwind uwtable
define internal noundef ptr @"_ZNSt14_Function_base13_Base_managerIZN2cv3ccm11elementWiseIZNKS2_9sRGBBase_7toLFuncERNS1_3MatEE3$_0EES5_RKS5_OT_S5_EUlRKNS1_5RangeEE_E14_M_get_pointerERKSt9_Any_data"(ptr noundef nonnull align 8 dereferenceable(16) %0) #8 align 2 {
  %2 = alloca ptr, align 8
  store ptr %0, ptr %2, align 8, !tbaa !316
  %3 = load ptr, ptr %2, align 8, !tbaa !316
  %4 = call noundef nonnull align 8 dereferenceable(8) ptr @"_ZNKSt9_Any_data9_M_accessIPZN2cv3ccm11elementWiseIZNKS2_9sRGBBase_7toLFuncERNS1_3MatEE3$_0EES5_RKS5_OT_S5_EUlRKNS1_5RangeEE_EERKSA_v"(ptr noundef nonnull align 8 dereferenceable(16) %3) #3
  %5 = load ptr, ptr %4, align 8, !tbaa !42
  ret ptr %5
}

; Function Attrs: mustprogress uwtable
define internal void @"_ZNSt17_Function_handlerIFvRKN2cv5RangeEEZNS0_3ccm11elementWiseIZNKS5_9sRGBBase_7toLFuncERNS0_3MatEE3$_0EES8_RKS8_OT_S8_EUlS3_E_E9_M_invokeERKSt9_Any_dataS3_"(ptr noundef nonnull align 8 dereferenceable(16) %0, ptr noundef nonnull align 4 dereferenceable(8) %1) #4 align 2 {
  %3 = alloca ptr, align 8
  %4 = alloca ptr, align 8
  store ptr %0, ptr %3, align 8, !tbaa !316
  store ptr %1, ptr %4, align 8, !tbaa !590
  %5 = load ptr, ptr %3, align 8, !tbaa !316
  %6 = call noundef ptr @"_ZNSt14_Function_base13_Base_managerIZN2cv3ccm11elementWiseIZNKS2_9sRGBBase_7toLFuncERNS1_3MatEE3$_0EES5_RKS5_OT_S5_EUlRKNS1_5RangeEE_E14_M_get_pointerERKSt9_Any_data"(ptr noundef nonnull align 8 dereferenceable(16) %5) #3
  %7 = load ptr, ptr %4, align 8, !tbaa !590
  call void @"_ZSt10__invoke_rIvRZN2cv3ccm11elementWiseIZNKS1_9sRGBBase_7toLFuncERNS0_3MatEE3$_0EES4_RKS4_OT_S4_EUlRKNS0_5RangeEE_JSD_EENSt9enable_ifIXsr6__and_ISt7is_voidIS9_ESt14__is_invocableIT0_JDpT1_EEEE5valueES9_E4typeEOSK_DpOSL_"(ptr noundef nonnull align 8 dereferenceable(40) %6, ptr noundef nonnull align 4 dereferenceable(8) %7)
  ret void
}