; Function Attrs: mustprogress nofree nounwind memory(readwrite, inaccessiblemem: write) uwtable
define internal void @"_ZNSt17_Function_handlerIFvRKN2cv5RangeEEZNS0_3ccm11elementWiseIZNKS5_9sRGBBase_7toLFuncERNS0_3MatEE3$_0EES8_RKS8_OT_S8_EUlS3_E_E9_M_invokeERKSt9_Any_dataS3_"(ptr noundef nonnull readonly align 8 captures(none) dereferenceable(16) %0, ptr noundef nonnull readonly align 4 captures(none) dereferenceable(8) %1) #25 align 2 {
  %.val = load ptr, ptr %0, align 8, !tbaa !148
  %.val2 = load i32, ptr %1, align 4, !tbaa !141
  %3 = getelementptr inbounds nuw i8, ptr %1, i64 4
  %.val3 = load i32, ptr %3, align 4, !tbaa !143
  %4 = load ptr, ptr %.val, align 8, !tbaa !471
  %5 = load i32, ptr %4, align 4, !tbaa !95
  %6 = mul nsw i32 %5, %.val2
  %7 = mul nsw i32 %5, %.val3
  %8 = getelementptr inbounds nuw i8, ptr %.val, i64 8
  %9 = load ptr, ptr %8, align 8, !tbaa !473
  %10 = load i32, ptr %9, align 4, !tbaa !95
  %.sroa.speculated.i.i.i = tail call i32 @llvm.smin.i32(i32 %10, i32 %7)
  %11 = icmp slt i32 %6, %.sroa.speculated.i.i.i
  br i1 %11, label %.lr.ph.i.i.i, label %"_ZSt10__invoke_rIvRZN2cv3ccm11elementWiseIZNKS1_9sRGBBase_7toLFuncERNS0_3MatEE3$_0EES4_RKS4_OT_S4_EUlRKNS0_5RangeEE_JSD_EENSt9enable_ifIXsr6__and_ISt7is_voidIS9_ESt14__is_invocableIT0_JDpT1_EEEE5valueES9_E4typeEOSK_DpOSL_.exit"

.lr.ph.i.i.i:                                     ; preds = %2
  %12 = getelementptr inbounds nuw i8, ptr %.val, i64 24
  %13 = load ptr, ptr %12, align 8, !tbaa !474
  %14 = getelementptr inbounds nuw i8, ptr %.val, i64 32
  %15 = load ptr, ptr %14, align 8, !tbaa !475
  %16 = load ptr, ptr %15, align 8, !tbaa !140
  %.val.i.i.i = load ptr, ptr %13, align 8, !tbaa !134
  %17 = getelementptr inbounds nuw i8, ptr %.val.i.i.i, i64 480
  %18 = getelementptr inbounds nuw i8, ptr %.val.i.i.i, i64 472
  %19 = getelementptr inbounds nuw i8, ptr %.val.i.i.i, i64 456
  %20 = getelementptr inbounds nuw i8, ptr %.val.i.i.i, i64 448
  %21 = getelementptr inbounds nuw i8, ptr %.val, i64 16
  %22 = load ptr, ptr %21, align 8, !tbaa !476
  %23 = load ptr, ptr %22, align 8, !tbaa !140
  %24 = sext i32 %6 to i64
  %wide.trip.count.i.i.i = sext i32 %.sroa.speculated.i.i.i to i64
  br label %25

25:                                               ; preds = %"_ZZNK2cv3ccm9sRGBBase_7toLFuncERNS_3MatEENK3$_0clEd.exit.i.i.i", %.lr.ph.i.i.i
  %indvars.iv.i.i.i = phi i64 [ %24, %.lr.ph.i.i.i ], [ %indvars.iv.next.i.i.i, %"_ZZNK2cv3ccm9sRGBBase_7toLFuncERNS_3MatEENK3$_0clEd.exit.i.i.i" ]
  %26 = getelementptr inbounds double, ptr %16, i64 %indvars.iv.i.i.i
  %27 = load double, ptr %26, align 8, !tbaa !84
  %28 = load double, ptr %17, align 8, !tbaa !131
  %29 = fcmp ogt double %27, %28
  br i1 %29, label %30, label %37

30:                                               ; preds = %25
  %31 = load double, ptr %19, align 8, !tbaa !129
  %32 = fadd double %27, %31
  %33 = fadd double %32, -1.000000e+00
  %34 = fdiv double %33, %31
  %35 = load double, ptr %20, align 8, !tbaa !130
  %36 = tail call double @pow(double noundef %34, double noundef %35) #35, !tbaa !95
  br label %"_ZZNK2cv3ccm9sRGBBase_7toLFuncERNS_3MatEENK3$_0clEd.exit.i.i.i"

37:                                               ; preds = %25
  %38 = fneg double %28
  %39 = fcmp ult double %27, %38
  br i1 %39, label %43, label %40

40:                                               ; preds = %37
  %41 = load double, ptr %18, align 8, !tbaa !132
  %42 = fdiv double %27, %41
  br label %"_ZZNK2cv3ccm9sRGBBase_7toLFuncERNS_3MatEENK3$_0clEd.exit.i.i.i"

43:                                               ; preds = %37
  %44 = load double, ptr %19, align 8, !tbaa !129
  %45 = fsub double %44, %27
  %46 = fadd double %45, -1.000000e+00
  %47 = fdiv double %46, %44
  %48 = load double, ptr %20, align 8, !tbaa !130
  %49 = tail call double @pow(double noundef %47, double noundef %48) #35, !tbaa !95
  %50 = fneg double %49
  br label %"_ZZNK2cv3ccm9sRGBBase_7toLFuncERNS_3MatEENK3$_0clEd.exit.i.i.i"

"_ZZNK2cv3ccm9sRGBBase_7toLFuncERNS_3MatEENK3$_0clEd.exit.i.i.i": ; preds = %43, %40, %30
  %.0.i.i.i.i.i = phi double [ %36, %30 ], [ %42, %40 ], [ %50, %43 ]
  %51 = getelementptr inbounds double, ptr %23, i64 %indvars.iv.i.i.i
  store double %.0.i.i.i.i.i, ptr %51, align 8, !tbaa !84
  %indvars.iv.next.i.i.i = add nsw i64 %indvars.iv.i.i.i, 1
  %exitcond.not.i.i.i = icmp eq i64 %indvars.iv.next.i.i.i, %wide.trip.count.i.i.i
  br i1 %exitcond.not.i.i.i, label %"_ZSt10__invoke_rIvRZN2cv3ccm11elementWiseIZNKS1_9sRGBBase_7toLFuncERNS0_3MatEE3$_0EES4_RKS4_OT_S4_EUlRKNS0_5RangeEE_JSD_EENSt9enable_ifIXsr6__and_ISt7is_voidIS9_ESt14__is_invocableIT0_JDpT1_EEEE5valueES9_E4typeEOSK_DpOSL_.exit", label %25, !llvm.loop !477

"_ZSt10__invoke_rIvRZN2cv3ccm11elementWiseIZNKS1_9sRGBBase_7toLFuncERNS0_3MatEE3$_0EES4_RKS4_OT_S4_EUlRKNS0_5RangeEE_JSD_EENSt9enable_ifIXsr6__and_ISt7is_voidIS9_ESt14__is_invocableIT0_JDpT1_EEEE5valueES9_E4typeEOSK_DpOSL_.exit": ; preds = %"_ZZNK2cv3ccm9sRGBBase_7toLFuncERNS_3MatEENK3$_0clEd.exit.i.i.i", %2
  ret void
}